target datalayout = "e-m:e-p270:32:32-p271:32:32-p272:64:64-i64:64-i128:128-f80:128-n8:16:32:64-S128"
target triple = "x86_64-pc-linux-gnu"

%"class.std::__cxx11::basic_string" = type { %"struct.std::__cxx11::basic_string<char>::_Alloc_hider", i64, %union.anon }
%"struct.std::__cxx11::basic_string<char>::_Alloc_hider" = type { ptr }
%union.anon = type { i64, [8 x i8] }
%"class.testing::internal::FilePath" = type { %"class.std::__cxx11::basic_string" }

@.str.51 = private unnamed_addr constant [1 x i8] zeroinitializer, align 1

; Function Attrs: mustprogress nounwind uwtable
define linkonce_odr hidden noundef i64 @_ZNSt11char_traitsIcE6lengthEPKc(ptr noundef %0) #7 comdat align 2 {
  %2 = alloca ptr, align 8
  store ptr %0, ptr %2, align 8, !tbaa !15
  %3 = load ptr, ptr %2, align 8, !tbaa !15
  %4 = call i64 @strlen(ptr noundef %3) #3
  ret i64 %4
}

; Function Attrs: mustprogress nounwind uwtable
define available_externally noundef i64 @_ZNKSt7__cxx1112basic_stringIcSt11char_traitsIcESaIcEE4sizeEv(ptr noundef nonnull align 8 dereferenceable(32) %0) #7 align 2 {
  %2 = alloca ptr, align 8
  store ptr %0, ptr %2, align 8, !tbaa !21
  %3 = load ptr, ptr %2, align 8
  %4 = getelementptr inbounds nuw %"class.std::__cxx11::basic_string", ptr %3, i32 0, i32 1
  %5 = load i64, ptr %4, align 8, !tbaa !82
  ret i64 %5
}

; Function Attrs: mustprogress uwtable
define available_externally noundef nonnull align 8 dereferenceable(32) ptr @_ZNSt7__cxx1112basic_stringIcSt11char_traitsIcESaIcEE6assignEPKc(ptr noundef nonnull align 8 dereferenceable(32) %0, ptr noundef %1) #6 align 2 {
  %3 = alloca ptr, align 8
  %4 = alloca ptr, align 8
  store ptr %0, ptr %3, align 8, !tbaa !21
  store ptr %1, ptr %4, align 8, !tbaa !15
  %5 = load ptr, ptr %3, align 8
  %6 = call noundef i64 @_ZNKSt7__cxx1112basic_stringIcSt11char_traitsIcESaIcEE4sizeEv(ptr noundef nonnull align 8 dereferenceable(32) %5) #3
  %7 = load ptr, ptr %4, align 8, !tbaa !15
  %8 = load ptr, ptr %4, align 8, !tbaa !15
  %9 = call noundef i64 @_ZNSt11char_traitsIcE6lengthEPKc(ptr noundef %8)
  %10 = call noundef nonnull align 8 dereferenceable(32) ptr @_ZNSt7__cxx1112basic_stringIcSt11char_traitsIcESaIcEE10_M_replaceEmmPKcm(ptr noundef nonnull align 8 dereferenceable(32) %5, i64 noundef 0, i64 noundef %6, ptr noundef %7, i64 noundef %9)
  ret ptr %10
}

; Function Attrs: mustprogress nounwind uwtable
define available_externally noundef ptr @_ZNKSt7__cxx1112basic_stringIcSt11char_traitsIcESaIcEE7_M_dataEv(ptr noundef nonnull align 8 dereferenceable(32) %0) #7 align 2 {
  %2 = alloca ptr, align 8
  store ptr %0, ptr %2, align 8, !tbaa !21
  %3 = load ptr, ptr %2, align 8
  %4 = getelementptr inbounds nuw %"class.std::__cxx11::basic_string", ptr %3, i32 0, i32 0
  %5 = getelementptr inbounds nuw %"struct.std::__cxx11::basic_string<char>::_Alloc_hider", ptr %4, i32 0, i32 0
  %6 = load ptr, ptr %5, align 8, !tbaa !820
  ret ptr %6
}

; Function Attrs: mustprogress nounwind uwtable
define internal noundef zeroext i1 @_ZN7testing8internalL15IsPathSeparatorEc(i8 noundef signext %0) #7 {
  %2 = alloca i8, align 1
  store i8 %0, ptr %2, align 1, !tbaa !79
  %3 = load i8, ptr %2, align 1, !tbaa !79
  %4 = sext i8 %3 to i32
  %5 = icmp eq i32 %4, 47
  ret i1 %5
}

; Function Attrs: mustprogress nounwind uwtable
define available_externally noundef i64 @_ZNKSt7__cxx1112basic_stringIcSt11char_traitsIcESaIcEE6lengthEv(ptr noundef nonnull align 8 dereferenceable(32) %0) #7 align 2 {
  %2 = alloca ptr, align 8
  store ptr %0, ptr %2, align 8, !tbaa !21
  %3 = load ptr, ptr %2, align 8
  %4 = getelementptr inbounds nuw %"class.std::__cxx11::basic_string", ptr %3, i32 0, i32 1
  %5 = load i64, ptr %4, align 8, !tbaa !82
  ret i64 %5
}

; Function Attrs: mustprogress uwtable
define available_externally noundef nonnull align 8 dereferenceable(32) ptr @_ZNSt7__cxx1112basic_stringIcSt11char_traitsIcESaIcEEaSEPKc(ptr noundef nonnull align 8 dereferenceable(32) %0, ptr noundef %1) #6 align 2 {
  %3 = alloca ptr, align 8
  %4 = alloca ptr, align 8
  store ptr %0, ptr %3, align 8, !tbaa !21
  store ptr %1, ptr %4, align 8, !tbaa !15
  %5 = load ptr, ptr %3, align 8
  %6 = load ptr, ptr %4, align 8, !tbaa !15
  %7 = call noundef nonnull align 8 dereferenceable(32) ptr @_ZNSt7__cxx1112basic_stringIcSt11char_traitsIcESaIcEE6assignEPKc(ptr noundef nonnull align 8 dereferenceable(32) %5, ptr noundef %6)
  ret ptr %7
}

; Function Attrs: mustprogress nounwind uwtable
define available_externally noundef ptr @_ZNKSt7__cxx1112basic_stringIcSt11char_traitsIcESaIcEE5c_strEv(ptr noundef nonnull align 8 dereferenceable(32) %0) #7 align 2 {
  %2 = alloca ptr, align 8
  store ptr %0, ptr %2, align 8, !tbaa !21
  %3 = load ptr, ptr %2, align 8
  %4 = call noundef ptr @_ZNKSt7__cxx1112basic_stringIcSt11char_traitsIcESaIcEE7_M_dataEv(ptr noundef nonnull align 8 dereferenceable(32) %3)
  ret ptr %4
}

; Function Attrs: mustprogress uwtable
define void @_ZN7testing8internal8FilePath9NormalizeEv(ptr noundef nonnull align 8 dereferenceable(32) %0) #6 align 2 {
  %2 = alloca ptr, align 8
  %3 = alloca ptr, align 8
  %4 = alloca ptr, align 8
  %5 = alloca ptr, align 8
  store ptr %0, ptr %2, align 8, !tbaa !76
  %6 = load ptr, ptr %2, align 8
  %7 = getelementptr inbounds nuw %"class.testing::internal::FilePath", ptr %6, i32 0, i32 0
  %8 = call noundef ptr @_ZNKSt7__cxx1112basic_stringIcSt11char_traitsIcESaIcEE5c_strEv(ptr noundef nonnull align 8 dereferenceable(32) %7) #3
  %9 = icmp eq ptr %8, null
  br i1 %9, label %10, label %13

10:                                               ; preds = %1
  %11 = getelementptr inbounds nuw %"class.testing::internal::FilePath", ptr %6, i32 0, i32 0
  %12 = call noundef nonnull align 8 dereferenceable(32) ptr @_ZNSt7__cxx1112basic_stringIcSt11char_traitsIcESaIcEEaSEPKc(ptr noundef nonnull align 8 dereferenceable(32) %11, ptr noundef @.str.51)
  br label %61

13:                                               ; preds = %1
  call void @llvm.lifetime.start.p0(i64 8, ptr %3) #3
  %14 = getelementptr inbounds nuw %"class.testing::internal::FilePath", ptr %6, i32 0, i32 0
  %15 = call noundef ptr @_ZNKSt7__cxx1112basic_stringIcSt11char_traitsIcESaIcEE5c_strEv(ptr noundef nonnull align 8 dereferenceable(32) %14) #3
  store ptr %15, ptr %3, align 8, !tbaa !15
  call void @llvm.lifetime.start.p0(i64 8, ptr %4) #3
  %16 = getelementptr inbounds nuw %"class.testing::internal::FilePath", ptr %6, i32 0, i32 0
  %17 = call noundef i64 @_ZNKSt7__cxx1112basic_stringIcSt11char_traitsIcESaIcEE6lengthEv(ptr noundef nonnull align 8 dereferenceable(32) %16) #3
  %18 = add i64 %17, 1
  %19 = call noalias noundef nonnull ptr @_Znam(i64 noundef %18) #29
  store ptr %19, ptr %4, align 8, !tbaa !15
  call void @llvm.lifetime.start.p0(i64 8, ptr %5) #3
  %20 = load ptr, ptr %4, align 8, !tbaa !15
  store ptr %20, ptr %5, align 8, !tbaa !15
  %21 = load ptr, ptr %5, align 8, !tbaa !15
  %22 = getelementptr inbounds nuw %"class.testing::internal::FilePath", ptr %6, i32 0, i32 0
  %23 = call noundef i64 @_ZNKSt7__cxx1112basic_stringIcSt11char_traitsIcESaIcEE6lengthEv(ptr noundef nonnull align 8 dereferenceable(32) %22) #3
  %24 = add i64 %23, 1
  call void @llvm.memset.p0.i64(ptr align 1 %21, i8 0, i64 %24, i1 false)
  br label %25

25:                                               ; preds = %49, %13
  %26 = load ptr, ptr %3, align 8, !tbaa !15
  %27 = load i8, ptr %26, align 1, !tbaa !79
  %28 = sext i8 %27 to i32
  %29 = icmp ne i32 %28, 0
  br i1 %29, label %30, label %52

30:                                               ; preds = %25
  %31 = load ptr, ptr %3, align 8, !tbaa !15
  %32 = load i8, ptr %31, align 1, !tbaa !79
  %33 = load ptr, ptr %5, align 8, !tbaa !15
  store i8 %32, ptr %33, align 1, !tbaa !79
  %34 = load ptr, ptr %3, align 8, !tbaa !15
  %35 = load i8, ptr %34, align 1, !tbaa !79
  %36 = call noundef zeroext i1 @_ZN7testing8internalL15IsPathSeparatorEc(i8 noundef signext %35)
  br i1 %36, label %40, label %37

37:                                               ; preds = %30
  %38 = load ptr, ptr %3, align 8, !tbaa !15
  %39 = getelementptr inbounds nuw i8, ptr %38, i32 1
  store ptr %39, ptr %3, align 8, !tbaa !15
  br label %49

40:                                               ; preds = %30
  br label %41

41:                                               ; preds = %45, %40
  %42 = load ptr, ptr %3, align 8, !tbaa !15
  %43 = load i8, ptr %42, align 1, !tbaa !79
  %44 = call noundef zeroext i1 @_ZN7testing8internalL15IsPathSeparatorEc(i8 noundef signext %43)
  br i1 %44, label %45, label %48

45:                                               ; preds = %41
  %46 = load ptr, ptr %3, align 8, !tbaa !15
  %47 = getelementptr inbounds nuw i8, ptr %46, i32 1
  store ptr %47, ptr %3, align 8, !tbaa !15
  br label %41, !llvm.loop !698

48:                                               ; preds = %41
  br label %49

49:                                               ; preds = %48, %37
  %50 = load ptr, ptr %5, align 8, !tbaa !15
  %51 = getelementptr inbounds nuw i8, ptr %50, i32 1
  store ptr %51, ptr %5, align 8, !tbaa !15
  br label %25, !llvm.loop !699

52:                                               ; preds = %25
  %53 = load ptr, ptr %5, align 8, !tbaa !15
  store i8 0, ptr %53, align 1, !tbaa !79
  %54 = load ptr, ptr %4, align 8, !tbaa !15
  %55 = getelementptr inbounds nuw %"class.testing::internal::FilePath", ptr %6, i32 0, i32 0
  %56 = call noundef nonnull align 8 dereferenceable(32) ptr @_ZNSt7__cxx1112basic_stringIcSt11char_traitsIcESaIcEEaSEPKc(ptr noundef nonnull align 8 dereferenceable(32) %55, ptr noundef %54)
  %57 = load ptr, ptr %4, align 8, !tbaa !15
  %58 = icmp eq ptr %57, null
  br i1 %58, label %60, label %59

59:                                               ; preds = %52
  call void @_ZdaPv(ptr noundef %57) #30
  br label %60

60:                                               ; preds = %59, %52
  call void @llvm.lifetime.end.p0(i64 8, ptr %5) #3
  call void @llvm.lifetime.end.p0(i64 8, ptr %4) #3
  call void @llvm.lifetime.end.p0(i64 8, ptr %3) #3
  br label %61

61:                                               ; preds = %60, %10
  ret void
}