; Function Attrs: mustprogress uwtable
define void @_ZN7testing8internal8FilePath9NormalizeEv(ptr noundef nonnull align 8 dereferenceable(32) %0) local_unnamed_addr #4 align 2 {
  %2 = load ptr, ptr %0, align 8, !tbaa !3
  %3 = icmp eq ptr %2, null
  %4 = getelementptr inbounds nuw i8, ptr %0, i64 8
  %5 = load i64, ptr %4, align 8, !tbaa !11
  br i1 %3, label %6, label %8

6:                                                ; preds = %1
  %7 = tail call noundef nonnull align 8 dereferenceable(32) ptr @_ZNSt7__cxx1112basic_stringIcSt11char_traitsIcESaIcEE10_M_replaceEmmPKcm(ptr noundef nonnull align 8 dereferenceable(32) %0, i64 noundef 0, i64 noundef %5, ptr noundef nonnull @.str.51, i64 noundef 0)
  br label %23

8:                                                ; preds = %1
  %9 = add i64 %5, 1
  %10 = tail call noalias noundef nonnull ptr @_Znam(i64 noundef %9) #59
  tail call void @llvm.memset.p0.i64(ptr nonnull align 1 %10, i8 0, i64 %9, i1 false)
  %11 = load i8, ptr %2, align 1, !tbaa !13
  %.not16 = icmp eq i8 %11, 0
  br i1 %.not16, label %._crit_edge, label %.lr.ph

.lr.ph:                                           ; preds = %8, %.loopexit
  %12 = phi i8 [ %19, %.loopexit ], [ %11, %8 ]
  %.018 = phi ptr [ %20, %.loopexit ], [ %10, %8 ]
  %.01417 = phi ptr [ %.1, %.loopexit ], [ %2, %8 ]
  store i8 %12, ptr %.018, align 1, !tbaa !13
  %13 = load i8, ptr %.01417, align 1, !tbaa !13
  %14 = icmp eq i8 %13, 47
  br i1 %14, label %.preheader, label %15

15:                                               ; preds = %.lr.ph
  %16 = getelementptr inbounds nuw i8, ptr %.01417, i64 1
  %.pre = load i8, ptr %16, align 1, !tbaa !13
  br label %.loopexit

.preheader:                                       ; preds = %.lr.ph, %.preheader
  %.215 = phi ptr [ %17, %.preheader ], [ %.01417, %.lr.ph ]
  %17 = getelementptr inbounds nuw i8, ptr %.215, i64 1
  %.pr = load i8, ptr %17, align 1, !tbaa !13
  %18 = icmp eq i8 %.pr, 47
  br i1 %18, label %.preheader, label %.loopexit, !llvm.loop !1665

.loopexit:                                        ; preds = %.preheader, %15
  %19 = phi i8 [ %.pre, %15 ], [ %.pr, %.preheader ]
  %.1 = phi ptr [ %16, %15 ], [ %17, %.preheader ]
  %20 = getelementptr inbounds nuw i8, ptr %.018, i64 1
  %.not = icmp eq i8 %19, 0
  br i1 %.not, label %._crit_edge, label %.lr.ph, !llvm.loop !1666

._crit_edge:                                      ; preds = %.loopexit, %8
  %.0.lcssa = phi ptr [ %10, %8 ], [ %20, %.loopexit ]
  store i8 0, ptr %.0.lcssa, align 1, !tbaa !13
  %21 = tail call noundef i64 @strlen(ptr noundef nonnull dereferenceable(1) %10) #56
  %22 = tail call noundef nonnull align 8 dereferenceable(32) ptr @_ZNSt7__cxx1112basic_stringIcSt11char_traitsIcESaIcEE10_M_replaceEmmPKcm(ptr noundef nonnull align 8 dereferenceable(32) %0, i64 noundef 0, i64 noundef %5, ptr noundef nonnull %10, i64 noundef %21)
  tail call void @_ZdaPv(ptr noundef nonnull %10) #57
  br label %23

23:                                               ; preds = %._crit_edge, %6
  ret void
}